; Function Attrs: nounwind uwtable
define internal fastcc i32 @decCompare(ptr noundef captures(address) %0, ptr noundef captures(address) %1, i8 noundef zeroext range(i8 0, 2) %2) unnamed_addr #4 {
  %4 = getelementptr inbounds nuw i8, ptr %0, i64 10
  %5 = load i16, ptr %4, align 2, !tbaa !11
  %6 = icmp eq i16 %5, 0
  br i1 %6, label %7, label %15

7:                                                ; preds = %3
  %8 = load i32, ptr %0, align 4, !tbaa !10
  %9 = icmp eq i32 %8, 1
  br i1 %9, label %10, label %15

10:                                               ; preds = %7
  %11 = getelementptr inbounds nuw i8, ptr %0, i64 8
  %12 = load i8, ptr %11, align 4, !tbaa !4
  %13 = and i8 %12, 112
  %14 = icmp eq i8 %13, 0
  %not. = xor i1 %14, true
  %spec.select64 = zext i1 %not. to i32
  br label %15

15:                                               ; preds = %10, %7, %3
  %.not57 = phi i1 [ false, %7 ], [ false, %3 ], [ %14, %10 ]
  %.048 = phi i32 [ 1, %7 ], [ 1, %3 ], [ %spec.select64, %10 ]
  %.not = icmp eq i8 %2, 0
  br i1 %.not, label %29, label %16

16:                                               ; preds = %15
  %17 = getelementptr inbounds nuw i8, ptr %1, i64 10
  %18 = load i16, ptr %17, align 2, !tbaa !11
  %19 = icmp eq i16 %18, 0
  br i1 %19, label %20, label %28

20:                                               ; preds = %16
  %21 = load i32, ptr %1, align 4, !tbaa !10
  %22 = icmp eq i32 %21, 1
  br i1 %22, label %23, label %28

23:                                               ; preds = %20
  %24 = getelementptr inbounds nuw i8, ptr %1, i64 8
  %25 = load i8, ptr %24, align 4, !tbaa !4
  %26 = and i8 %25, 112
  %27 = icmp eq i8 %26, 0
  %brmerge = select i1 %27, i1 true, i1 %.not57
  %.048.mux = select i1 %27, i32 %.048, i32 -1
  br i1 %brmerge, label %106, label %53

28:                                               ; preds = %20, %16
  br i1 %.not57, label %106, label %._crit_edge

._crit_edge:                                      ; preds = %28
  %.phi.trans.insert = getelementptr inbounds nuw i8, ptr %1, i64 8
  %.pre = load i8, ptr %.phi.trans.insert, align 4, !tbaa !4
  br label %53

29:                                               ; preds = %15
  br i1 %.not57, label %33, label %30

30:                                               ; preds = %29
  %31 = getelementptr inbounds nuw i8, ptr %0, i64 8
  %32 = load i8, ptr %31, align 4, !tbaa !4
  %.not58 = icmp sgt i8 %32, -1
  %spec.select65 = select i1 %.not58, i32 1, i32 -1
  br label %33

33:                                               ; preds = %30, %29
  %.2 = phi i32 [ 0, %29 ], [ %spec.select65, %30 ]
  %34 = getelementptr inbounds nuw i8, ptr %1, i64 10
  %35 = load i16, ptr %34, align 2, !tbaa !11
  %36 = icmp eq i16 %35, 0
  br i1 %36, label %37, label %45

37:                                               ; preds = %33
  %38 = load i32, ptr %1, align 4, !tbaa !10
  %39 = icmp eq i32 %38, 1
  br i1 %39, label %40, label %45

40:                                               ; preds = %37
  %41 = getelementptr inbounds nuw i8, ptr %1, i64 8
  %42 = load i8, ptr %41, align 4, !tbaa !4
  %43 = and i8 %42, 112
  %44 = icmp eq i8 %43, 0
  br i1 %44, label %48, label %45

45:                                               ; preds = %40, %37, %33
  %46 = getelementptr inbounds nuw i8, ptr %1, i64 8
  %47 = load i8, ptr %46, align 4, !tbaa !4
  %.not59 = icmp sgt i8 %47, -1
  %spec.select66 = select i1 %.not59, i32 1, i32 -1
  br label %48

48:                                               ; preds = %45, %40
  %49 = phi i8 [ %42, %40 ], [ %47, %45 ]
  %.047 = phi i32 [ 0, %40 ], [ %spec.select66, %45 ]
  %50 = icmp sgt i32 %.2, %.047
  br i1 %50, label %106, label %51

51:                                               ; preds = %48
  %52 = icmp slt i32 %.2, %.047
  %brmerge68 = select i1 %52, i1 true, i1 %.not57
  %.mux = sext i1 %52 to i32
  br i1 %brmerge68, label %106, label %53

53:                                               ; preds = %._crit_edge, %51, %23
  %54 = phi i8 [ %.pre, %._crit_edge ], [ %25, %23 ], [ %49, %51 ]
  %.1 = phi i32 [ 1, %._crit_edge ], [ 1, %23 ], [ %.2, %51 ]
  %55 = getelementptr inbounds nuw i8, ptr %0, i64 8
  %56 = load i8, ptr %55, align 4, !tbaa !4
  %57 = zext i8 %56 to i32
  %58 = zext i8 %54 to i32
  %59 = or i32 %58, %57
  %60 = and i32 %59, 64
  %.not60 = icmp eq i32 %60, 0
  br i1 %.not60, label %66, label %61

61:                                               ; preds = %53
  %62 = and i32 %58, 64
  %.not62 = icmp eq i32 %62, 0
  br i1 %.not62, label %106, label %63

63:                                               ; preds = %61
  %64 = and i32 %57, 64
  %.not63 = icmp eq i32 %64, 0
  %65 = sub nsw i32 0, %.1
  %spec.select69 = select i1 %.not63, i32 %65, i32 0
  br label %106

66:                                               ; preds = %53
  %67 = getelementptr inbounds nuw i8, ptr %0, i64 4
  %68 = load i32, ptr %67, align 4, !tbaa !9
  %69 = getelementptr inbounds nuw i8, ptr %1, i64 4
  %70 = load i32, ptr %69, align 4, !tbaa !9
  %71 = icmp sgt i32 %68, %70
  %72 = sub nsw i32 0, %.1
  %.050 = select i1 %71, ptr %0, ptr %1
  %.049 = select i1 %71, ptr %1, ptr %0
  %.4 = select i1 %71, i32 %72, i32 %.1
  %73 = getelementptr inbounds nuw i8, ptr %.049, i64 10
  %74 = load i32, ptr %.049, align 4, !tbaa !10
  %75 = icmp slt i32 %74, 50
  br i1 %75, label %76, label %81

76:                                               ; preds = %66
  %77 = sext i32 %74 to i64
  %78 = getelementptr inbounds [50 x i8], ptr @d2utable, i64 0, i64 %77
  %79 = load i8, ptr %78, align 1, !tbaa !19
  %80 = zext i8 %79 to i32
  br label %84

81:                                               ; preds = %66
  %82 = add nuw nsw i32 %74, 2
  %83 = udiv i32 %82, 3
  br label %84

84:                                               ; preds = %81, %76
  %85 = phi i32 [ %80, %76 ], [ %83, %81 ]
  %86 = getelementptr inbounds nuw i8, ptr %.050, i64 10
  %87 = load i32, ptr %.050, align 4, !tbaa !10
  %88 = icmp slt i32 %87, 50
  br i1 %88, label %89, label %94

89:                                               ; preds = %84
  %90 = sext i32 %87 to i64
  %91 = getelementptr inbounds [50 x i8], ptr @d2utable, i64 0, i64 %90
  %92 = load i8, ptr %91, align 1, !tbaa !19
  %93 = zext i8 %92 to i32
  br label %97

94:                                               ; preds = %84
  %95 = add nuw nsw i32 %87, 2
  %96 = udiv i32 %95, 3
  br label %97

97:                                               ; preds = %94, %89
  %98 = phi i32 [ %93, %89 ], [ %96, %94 ]
  %99 = getelementptr inbounds nuw i8, ptr %.050, i64 4
  %100 = load i32, ptr %99, align 4, !tbaa !9
  %101 = getelementptr inbounds nuw i8, ptr %.049, i64 4
  %102 = load i32, ptr %101, align 4, !tbaa !9
  %103 = sub nsw i32 %100, %102
  %104 = tail call fastcc i32 @decUnitCompare(ptr noundef nonnull %73, i32 noundef %85, ptr noundef nonnull %86, i32 noundef %98, i32 noundef %103)
  %.not61 = icmp eq i32 %104, -2147483648
  %105 = mul nsw i32 %104, %.4
  %spec.select67 = select i1 %.not61, i32 -2147483648, i32 %105
  br label %106

106:                                              ; preds = %63, %51, %23, %61, %48, %28, %97
  %.0 = phi i32 [ %spec.select67, %97 ], [ %.048.mux, %23 ], [ -1, %28 ], [ 1, %48 ], [ %.mux, %51 ], [ %.1, %61 ], [ %spec.select69, %63 ]
  ret i32 %.0
}